; Function Attrs: nounwind uwtable
define range(i32 -12, 1) i32 @ff_set_common_all_channel_counts2(ptr noundef readonly captures(none) %0, ptr noundef readonly captures(none) %1, ptr noundef readonly captures(none) %2) local_unnamed_addr #3 {
  %4 = tail call noalias ptr @av_mallocz(i64 noundef 32) #10
  %.not.i = icmp eq ptr %4, null
  br i1 %.not.i, label %ff_all_channel_counts.exit, label %5

5:                                                ; preds = %3
  %6 = getelementptr inbounds nuw i8, ptr %4, i64 13
  store i8 1, ptr %6, align 1, !tbaa !61
  %7 = getelementptr inbounds nuw i8, ptr %4, i64 12
  store i8 1, ptr %7, align 4, !tbaa !60
  br label %ff_all_channel_counts.exit

ff_all_channel_counts.exit:                       ; preds = %3, %5
  %8 = tail call i32 @ff_set_common_channel_layouts2(ptr noundef %0, ptr noundef %1, ptr noundef %2, ptr noundef %4)
  ret i32 %8
}